target datalayout = "e-m:e-p270:32:32-p271:32:32-p272:64:64-i64:64-i128:128-f80:128-n8:16:32:64-S128"
target triple = "x86_64-pc-linux-gnu"

%"class.cvc5::internal::NodeTemplate" = type { ptr }
%"class.cvc5::internal::NodeTemplate.0" = type { ptr }
%"struct.std::_Vector_base.5" = type { %"struct.std::_Vector_base<cvc5::internal::NodeTemplate<true>, std::allocator<cvc5::internal::NodeTemplate<true>>>::_Vector_impl" }
%"struct.std::_Vector_base<cvc5::internal::NodeTemplate<true>, std::allocator<cvc5::internal::NodeTemplate<true>>>::_Vector_impl" = type { %"struct.std::_Vector_base<cvc5::internal::NodeTemplate<true>, std::allocator<cvc5::internal::NodeTemplate<true>>>::_Vector_impl_data" }
%"struct.std::_Vector_base<cvc5::internal::NodeTemplate<true>, std::allocator<cvc5::internal::NodeTemplate<true>>>::_Vector_impl_data" = type { ptr, ptr, ptr }

; Function Attrs: mustprogress nounwind uwtable
define linkonce_odr hidden void @_ZN4cvc58internal12NodeTemplateILb0EED2Ev(ptr noundef nonnull align 8 dereferenceable(8) %0) unnamed_addr #4 comdat align 2 {
  %2 = alloca ptr, align 8
  store ptr %0, ptr %2, align 8, !tbaa !32
  ret void
}

; Function Attrs: mustprogress nounwind uwtable
define linkonce_odr hidden void @_ZN4cvc58internal12NodeTemplateILb0EEC2ERKNS1_ILb1EEE(ptr noundef nonnull align 8 dereferenceable(8) %0, ptr noundef nonnull align 8 dereferenceable(8) %1) unnamed_addr #4 comdat align 2 {
  %3 = alloca ptr, align 8
  %4 = alloca ptr, align 8
  store ptr %0, ptr %3, align 8, !tbaa !32
  store ptr %1, ptr %4, align 8, !tbaa !15
  %5 = load ptr, ptr %3, align 8
  %6 = load ptr, ptr %4, align 8, !tbaa !15
  %7 = getelementptr inbounds nuw %"class.cvc5::internal::NodeTemplate", ptr %6, i32 0, i32 0
  %8 = load ptr, ptr %7, align 8, !tbaa !29
  %9 = getelementptr inbounds nuw %"class.cvc5::internal::NodeTemplate.0", ptr %5, i32 0, i32 0
  store ptr %8, ptr %9, align 8, !tbaa !34
  ret void
}

; Function Attrs: mustprogress nounwind uwtable
define linkonce_odr hidden noundef nonnull align 8 dereferenceable(8) ptr @_ZNSt6vectorIN4cvc58internal12NodeTemplateILb1EEESaIS3_EEixEm(ptr noundef nonnull align 8 dereferenceable(24) %0, i64 noundef %1) #4 comdat align 2 {
  %3 = alloca ptr, align 8
  %4 = alloca i64, align 8
  store ptr %0, ptr %3, align 8, !tbaa !41
  store i64 %1, ptr %4, align 8, !tbaa !19
  %5 = load ptr, ptr %3, align 8
  %6 = getelementptr inbounds nuw %"struct.std::_Vector_base.5", ptr %5, i32 0, i32 0
  %7 = getelementptr inbounds nuw %"struct.std::_Vector_base<cvc5::internal::NodeTemplate<true>, std::allocator<cvc5::internal::NodeTemplate<true>>>::_Vector_impl_data", ptr %6, i32 0, i32 0
  %8 = load ptr, ptr %7, align 8, !tbaa !46
  %9 = load i64, ptr %4, align 8, !tbaa !19
  %10 = getelementptr inbounds nuw %"class.cvc5::internal::NodeTemplate", ptr %8, i64 %9
  ret ptr %10
}

; Function Attrs: mustprogress nounwind uwtable
define linkonce_odr hidden noundef i64 @_ZNKSt6vectorIN4cvc58internal12NodeTemplateILb1EEESaIS3_EE4sizeEv(ptr noundef nonnull align 8 dereferenceable(24) %0) #4 comdat align 2 {
  %2 = alloca ptr, align 8
  store ptr %0, ptr %2, align 8, !tbaa !41
  %3 = load ptr, ptr %2, align 8
  %4 = getelementptr inbounds nuw %"struct.std::_Vector_base.5", ptr %3, i32 0, i32 0
  %5 = getelementptr inbounds nuw %"struct.std::_Vector_base<cvc5::internal::NodeTemplate<true>, std::allocator<cvc5::internal::NodeTemplate<true>>>::_Vector_impl_data", ptr %4, i32 0, i32 1
  %6 = load ptr, ptr %5, align 8, !tbaa !44
  %7 = getelementptr inbounds nuw %"struct.std::_Vector_base.5", ptr %3, i32 0, i32 0
  %8 = getelementptr inbounds nuw %"struct.std::_Vector_base<cvc5::internal::NodeTemplate<true>, std::allocator<cvc5::internal::NodeTemplate<true>>>::_Vector_impl_data", ptr %7, i32 0, i32 0
  %9 = load ptr, ptr %8, align 8, !tbaa !46
  %10 = ptrtoint ptr %6 to i64
  %11 = ptrtoint ptr %9 to i64
  %12 = sub i64 %10, %11
  %13 = sdiv exact i64 %12, 8
  ret i64 %13
}

; Function Attrs: mustprogress uwtable
define hidden noundef zeroext i1 @_ZN4cvc58internal6theory7strings13StringsEntail22canConstantContainListENS0_12NodeTemplateILb1EEERSt6vectorIS5_SaIS5_EERiSA_(ptr noundef %0, ptr noundef nonnull align 8 dereferenceable(24) %1, ptr noundef nonnull align 4 dereferenceable(4) %2, ptr noundef nonnull align 4 dereferenceable(4) %3) #5 align 2 personality ptr @__gxx_personality_v0 {
  %5 = alloca i1, align 1
  %6 = alloca ptr, align 8
  %7 = alloca ptr, align 8
  %8 = alloca ptr, align 8
  %9 = alloca ptr, align 8
  %10 = alloca i64, align 8
  %11 = alloca i32, align 4
  %12 = alloca i32, align 4
  %13 = alloca i64, align 8
  %14 = alloca %"class.cvc5::internal::NodeTemplate.0", align 8
  %15 = alloca %"class.cvc5::internal::NodeTemplate.0", align 8
  %16 = alloca ptr, align 8
  %17 = alloca i32, align 4
  %18 = alloca %"class.cvc5::internal::NodeTemplate.0", align 8
  store ptr %0, ptr %6, align 8, !tbaa !15
  store ptr %1, ptr %7, align 8, !tbaa !41
  store ptr %2, ptr %8, align 8, !tbaa !17
  store ptr %3, ptr %9, align 8, !tbaa !17
  call void @llvm.lifetime.start.p0(i64 8, ptr %10) #3
  store i64 0, ptr %10, align 8, !tbaa !19
  %19 = load ptr, ptr %8, align 8, !tbaa !17
  store i32 -1, ptr %19, align 4, !tbaa !21
  %20 = load ptr, ptr %9, align 8, !tbaa !17
  store i32 -1, ptr %20, align 4, !tbaa !21
  call void @llvm.lifetime.start.p0(i64 4, ptr %11) #3
  store i32 0, ptr %11, align 4, !tbaa !21
  br label %21

21:                                               ; preds = %87, %4
  %22 = load i32, ptr %11, align 4, !tbaa !21
  %23 = zext i32 %22 to i64
  %24 = load ptr, ptr %7, align 8, !tbaa !41
  %25 = call noundef i64 @_ZNKSt6vectorIN4cvc58internal12NodeTemplateILb1EEESaIS3_EE4sizeEv(ptr noundef nonnull align 8 dereferenceable(24) %24) #3
  %26 = icmp ult i64 %23, %25
  br i1 %26, label %28, label %27

27:                                               ; preds = %21
  store i32 2, ptr %12, align 4
  br label %90

28:                                               ; preds = %21
  %29 = load ptr, ptr %7, align 8, !tbaa !41
  %30 = load i32, ptr %11, align 4, !tbaa !21
  %31 = zext i32 %30 to i64
  %32 = call noundef nonnull align 8 dereferenceable(8) ptr @_ZNSt6vectorIN4cvc58internal12NodeTemplateILb1EEESaIS3_EEixEm(ptr noundef nonnull align 8 dereferenceable(24) %29, i64 noundef %31) #3
  %33 = call noundef zeroext i1 @_ZNK4cvc58internal12NodeTemplateILb1EE7isConstEv(ptr noundef nonnull align 8 dereferenceable(8) %32)
  br i1 %33, label %34, label %86

34:                                               ; preds = %28
  %35 = load ptr, ptr %8, align 8, !tbaa !17
  %36 = load i32, ptr %35, align 4, !tbaa !21
  %37 = icmp eq i32 %36, -1
  br i1 %37, label %38, label %40

38:                                               ; preds = %34
  %39 = load i32, ptr %11, align 4, !tbaa !21
  br label %43

40:                                               ; preds = %34
  %41 = load ptr, ptr %8, align 8, !tbaa !17
  %42 = load i32, ptr %41, align 4, !tbaa !21
  br label %43

43:                                               ; preds = %40, %38
  %44 = phi i32 [ %39, %38 ], [ %42, %40 ]
  %45 = load ptr, ptr %8, align 8, !tbaa !17
  store i32 %44, ptr %45, align 4, !tbaa !21
  %46 = load i32, ptr %11, align 4, !tbaa !21
  %47 = load ptr, ptr %9, align 8, !tbaa !17
  store i32 %46, ptr %47, align 4, !tbaa !21
  call void @llvm.lifetime.start.p0(i64 8, ptr %13) #3
  call void @_ZN4cvc58internal12NodeTemplateILb0EEC2ERKNS1_ILb1EEE(ptr noundef nonnull align 8 dereferenceable(8) %14, ptr noundef nonnull align 8 dereferenceable(8) %0)
  %48 = load ptr, ptr %7, align 8, !tbaa !41
  %49 = load i32, ptr %11, align 4, !tbaa !21
  %50 = zext i32 %49 to i64
  %51 = call noundef nonnull align 8 dereferenceable(8) ptr @_ZNSt6vectorIN4cvc58internal12NodeTemplateILb1EEESaIS3_EEixEm(ptr noundef nonnull align 8 dereferenceable(24) %48, i64 noundef %50) #3
  invoke void @_ZN4cvc58internal12NodeTemplateILb0EEC2ERKNS1_ILb1EEE(ptr noundef nonnull align 8 dereferenceable(8) %15, ptr noundef nonnull align 8 dereferenceable(8) %51)
          to label %52 unwind label %59

52:                                               ; preds = %43
  %53 = load i64, ptr %10, align 8, !tbaa !19
  %54 = invoke noundef i64 @_ZN4cvc58internal6theory7strings4Word4findENS0_12NodeTemplateILb0EEES5_m(ptr noundef %14, ptr noundef %15, i64 noundef %53)
          to label %55 unwind label %63

55:                                               ; preds = %52
  call void @_ZN4cvc58internal12NodeTemplateILb0EED2Ev(ptr noundef nonnull align 8 dereferenceable(8) %15) #3
  call void @_ZN4cvc58internal12NodeTemplateILb0EED2Ev(ptr noundef nonnull align 8 dereferenceable(8) %14) #3
  store i64 %54, ptr %13, align 8, !tbaa !19
  %56 = load i64, ptr %13, align 8, !tbaa !19
  %57 = icmp eq i64 %56, -1
  br i1 %57, label %58, label %68

58:                                               ; preds = %55
  store i1 false, ptr %5, align 1
  store i32 1, ptr %12, align 4
  br label %82

59:                                               ; preds = %43
  %60 = landingpad { ptr, i32 }
          cleanup
  %61 = extractvalue { ptr, i32 } %60, 0
  store ptr %61, ptr %16, align 8
  %62 = extractvalue { ptr, i32 } %60, 1
  store i32 %62, ptr %17, align 4
  br label %67

63:                                               ; preds = %52
  %64 = landingpad { ptr, i32 }
          cleanup
  %65 = extractvalue { ptr, i32 } %64, 0
  store ptr %65, ptr %16, align 8
  %66 = extractvalue { ptr, i32 } %64, 1
  store i32 %66, ptr %17, align 4
  call void @_ZN4cvc58internal12NodeTemplateILb0EED2Ev(ptr noundef nonnull align 8 dereferenceable(8) %15) #3
  br label %67

67:                                               ; preds = %63, %59
  call void @_ZN4cvc58internal12NodeTemplateILb0EED2Ev(ptr noundef nonnull align 8 dereferenceable(8) %14) #3
  br label %85

68:                                               ; preds = %55
  %69 = load i64, ptr %13, align 8, !tbaa !19
  %70 = load ptr, ptr %7, align 8, !tbaa !41
  %71 = load i32, ptr %11, align 4, !tbaa !21
  %72 = zext i32 %71 to i64
  %73 = call noundef nonnull align 8 dereferenceable(8) ptr @_ZNSt6vectorIN4cvc58internal12NodeTemplateILb1EEESaIS3_EEixEm(ptr noundef nonnull align 8 dereferenceable(24) %70, i64 noundef %72) #3
  call void @_ZN4cvc58internal12NodeTemplateILb0EEC2ERKNS1_ILb1EEE(ptr noundef nonnull align 8 dereferenceable(8) %18, ptr noundef nonnull align 8 dereferenceable(8) %73)
  %74 = invoke noundef i64 @_ZN4cvc58internal6theory7strings4Word9getLengthENS0_12NodeTemplateILb0EEE(ptr noundef %18)
          to label %75 unwind label %77

75:                                               ; preds = %68
  %76 = add i64 %69, %74
  store i64 %76, ptr %10, align 8, !tbaa !19
  call void @_ZN4cvc58internal12NodeTemplateILb0EED2Ev(ptr noundef nonnull align 8 dereferenceable(8) %18) #3
  br label %81

77:                                               ; preds = %68
  %78 = landingpad { ptr, i32 }
          cleanup
  %79 = extractvalue { ptr, i32 } %78, 0
  store ptr %79, ptr %16, align 8
  %80 = extractvalue { ptr, i32 } %78, 1
  store i32 %80, ptr %17, align 4
  call void @_ZN4cvc58internal12NodeTemplateILb0EED2Ev(ptr noundef nonnull align 8 dereferenceable(8) %18) #3
  br label %85

81:                                               ; preds = %75
  store i32 0, ptr %12, align 4
  br label %82

82:                                               ; preds = %81, %58
  call void @llvm.lifetime.end.p0(i64 8, ptr %13) #3
  %83 = load i32, ptr %12, align 4
  switch i32 %83, label %90 [
    i32 0, label %84
  ]

84:                                               ; preds = %82
  br label %86

85:                                               ; preds = %77, %67
  call void @llvm.lifetime.end.p0(i64 8, ptr %13) #3
  call void @llvm.lifetime.end.p0(i64 4, ptr %11) #3
  call void @llvm.lifetime.end.p0(i64 8, ptr %10) #3
  br label %95

86:                                               ; preds = %84, %28
  br label %87

87:                                               ; preds = %86
  %88 = load i32, ptr %11, align 4, !tbaa !21
  %89 = add i32 %88, 1
  store i32 %89, ptr %11, align 4, !tbaa !21
  br label %21, !llvm.loop !43

90:                                               ; preds = %82, %27
  call void @llvm.lifetime.end.p0(i64 4, ptr %11) #3
  %91 = load i32, ptr %12, align 4
  switch i32 %91, label %93 [
    i32 2, label %92
  ]

92:                                               ; preds = %90
  store i1 true, ptr %5, align 1
  store i32 1, ptr %12, align 4
  br label %93

93:                                               ; preds = %92, %90
  call void @llvm.lifetime.end.p0(i64 8, ptr %10) #3
  %94 = load i1, ptr %5, align 1
  ret i1 %94

95:                                               ; preds = %85
  %96 = load ptr, ptr %16, align 8
  %97 = load i32, ptr %17, align 4
  %98 = insertvalue { ptr, i32 } poison, ptr %96, 0
  %99 = insertvalue { ptr, i32 } %98, i32 %97, 1
  resume { ptr, i32 } %99
}