; Function Attrs: mustprogress uwtable
define hidden noundef zeroext i1 @_ZN4cvc58internal6theory7strings13StringsEntail22canConstantContainListENS0_12NodeTemplateILb1EEERSt6vectorIS5_SaIS5_EERiSA_(ptr noundef readonly captures(none) %0, ptr noundef nonnull readonly align 8 captures(none) dereferenceable(24) %1, ptr noundef nonnull align 4 captures(none) dereferenceable(4) initializes((0, 4)) %2, ptr noundef nonnull writeonly align 4 captures(none) dereferenceable(4) initializes((0, 4)) %3) local_unnamed_addr #4 align 2 personality ptr @__gxx_personality_v0 {
  %5 = alloca %"class.cvc5::internal::NodeTemplate.0", align 8
  %6 = alloca %"class.cvc5::internal::NodeTemplate.0", align 8
  %7 = alloca %"class.cvc5::internal::NodeTemplate.0", align 8
  store i32 -1, ptr %2, align 4, !tbaa !12
  store i32 -1, ptr %3, align 4, !tbaa !12
  %8 = getelementptr inbounds nuw i8, ptr %1, i64 8
  %9 = load ptr, ptr %8, align 8, !tbaa !48
  %10 = load ptr, ptr %1, align 8, !tbaa !51
  %.not3739 = icmp eq ptr %9, %10
  br i1 %.not3739, label %.critedge, label %.lr.ph

.lr.ph:                                           ; preds = %4, %29
  %11 = phi ptr [ %33, %29 ], [ %10, %4 ]
  %12 = phi i64 [ %31, %29 ], [ 0, %4 ]
  %.02941 = phi i32 [ %30, %29 ], [ 0, %4 ]
  %.03040 = phi i64 [ %.232, %29 ], [ 0, %4 ]
  %13 = getelementptr inbounds nuw %"class.cvc5::internal::NodeTemplate", ptr %11, i64 %12
  %14 = call noundef zeroext i1 @_ZNK4cvc58internal12NodeTemplateILb1EE7isConstEv(ptr noundef nonnull align 8 dereferenceable(8) %13)
  br i1 %14, label %15, label %29

15:                                               ; preds = %.lr.ph
  %16 = load i32, ptr %2, align 4, !tbaa !12
  %17 = icmp eq i32 %16, -1
  %.029. = select i1 %17, i32 %.02941, i32 %16
  store i32 %.029., ptr %2, align 4, !tbaa !12
  store i32 %.02941, ptr %3, align 4, !tbaa !12
  %18 = load ptr, ptr %0, align 8, !tbaa !14
  store ptr %18, ptr %5, align 8, !tbaa !23
  %19 = load ptr, ptr %1, align 8, !tbaa !51
  %20 = getelementptr inbounds nuw %"class.cvc5::internal::NodeTemplate", ptr %19, i64 %12
  %21 = load ptr, ptr %20, align 8, !tbaa !14
  store ptr %21, ptr %6, align 8, !tbaa !23
  %22 = call noundef i64 @_ZN4cvc58internal6theory7strings4Word4findENS0_12NodeTemplateILb0EEES5_m(ptr noundef nonnull %5, ptr noundef nonnull %6, i64 noundef %.03040)
  %.not = icmp eq i64 %22, -1
  br i1 %.not, label %.critedge, label %23

23:                                               ; preds = %15
  %24 = load ptr, ptr %1, align 8, !tbaa !51
  %25 = getelementptr inbounds nuw %"class.cvc5::internal::NodeTemplate", ptr %24, i64 %12
  %26 = load ptr, ptr %25, align 8, !tbaa !14
  store ptr %26, ptr %7, align 8, !tbaa !23
  %27 = call noundef i64 @_ZN4cvc58internal6theory7strings4Word9getLengthENS0_12NodeTemplateILb0EEE(ptr noundef nonnull %7)
  %28 = add i64 %27, %22
  br label %29

29:                                               ; preds = %23, %.lr.ph
  %.232 = phi i64 [ %28, %23 ], [ %.03040, %.lr.ph ]
  %30 = add i32 %.02941, 1
  %31 = zext i32 %30 to i64
  %32 = load ptr, ptr %8, align 8, !tbaa !48
  %33 = load ptr, ptr %1, align 8, !tbaa !51
  %34 = ptrtoint ptr %32 to i64
  %35 = ptrtoint ptr %33 to i64
  %36 = sub i64 %34, %35
  %37 = ashr exact i64 %36, 3
  %.not37.not = icmp ugt i64 %37, %31
  br i1 %.not37.not, label %.lr.ph, label %.critedge, !llvm.loop !52

.critedge:                                        ; preds = %29, %15, %4
  %.not37.lcssa = phi i1 [ true, %4 ], [ false, %15 ], [ true, %29 ]
  ret i1 %.not37.lcssa
}